target datalayout = "e-m:e-p270:32:32-p271:32:32-p272:64:64-i64:64-i128:128-f80:128-n8:16:32:64-S128"
target triple = "x86_64-pc-linux-gnu"

%class.Node = type <{ ptr, ptr, ptr, i32, i32, i32, i32, i32, i32, i32, [4 x i8] }>
%class.Node.base = type <{ ptr, ptr, ptr, i32, i32, i32, i32, i32, i32, i32 }>
%class.LoopNode = type { %class.RegionNode.base, i32, i8, float }
%class.RegionNode.base = type { %class.Node.base, i8, i32 }
%class.AssertionPredicatesWithHalt = type { ptr }

; Function Attrs: mustprogress nounwind uwtable
define linkonce_odr hidden noundef ptr @_ZNK27AssertionPredicatesWithHalt5entryEv(ptr noundef nonnull align 8 dereferenceable(8) %0) #1 comdat align 2 {
  %2 = alloca ptr, align 8
  store ptr %0, ptr %2, align 8
  %3 = load ptr, ptr %2, align 8
  %4 = getelementptr inbounds %class.AssertionPredicatesWithHalt, ptr %3, i32 0, i32 0
  %5 = load ptr, ptr %4, align 8
  ret ptr %5
}

; Function Attrs: mustprogress nounwind uwtable
define linkonce_odr hidden void @_ZN27AssertionPredicatesWithHaltC2EP4Node(ptr noundef nonnull align 8 dereferenceable(8) %0, ptr noundef %1) unnamed_addr #1 comdat align 2 {
  %3 = alloca ptr, align 8
  %4 = alloca ptr, align 8
  store ptr %0, ptr %3, align 8
  store ptr %1, ptr %4, align 8
  %5 = load ptr, ptr %3, align 8
  %6 = getelementptr inbounds %class.AssertionPredicatesWithHalt, ptr %5, i32 0, i32 0
  %7 = load ptr, ptr %4, align 8
  %8 = call noundef ptr @_ZN27AssertionPredicatesWithHalt10find_entryEP4Node(ptr noundef %7)
  store ptr %8, ptr %6, align 8
  ret void
}

; Function Attrs: mustprogress nounwind uwtable
define linkonce_odr hidden noundef zeroext i1 @_ZNK15CountedLoopNode12is_post_loopEv(ptr noundef nonnull align 8 dereferenceable(92) %0) #1 comdat align 2 {
  %2 = alloca ptr, align 8
  store ptr %0, ptr %2, align 8
  %3 = load ptr, ptr %2, align 8
  %4 = getelementptr inbounds %class.LoopNode, ptr %3, i32 0, i32 1
  %5 = load i32, ptr %4, align 4
  %6 = and i32 %5, 3
  %7 = icmp eq i32 %6, 3
  ret i1 %7
}

; Function Attrs: mustprogress nounwind uwtable
define linkonce_odr hidden noundef zeroext i1 @_ZNK15CountedLoopNode12is_main_loopEv(ptr noundef nonnull align 8 dereferenceable(92) %0) #1 comdat align 2 {
  %2 = alloca ptr, align 8
  store ptr %0, ptr %2, align 8
  %3 = load ptr, ptr %2, align 8
  %4 = getelementptr inbounds %class.LoopNode, ptr %3, i32 0, i32 1
  %5 = load i32, ptr %4, align 4
  %6 = and i32 %5, 3
  %7 = icmp eq i32 %6, 2
  ret i1 %7
}

; Function Attrs: mustprogress nounwind uwtable
define linkonce_odr hidden noundef ptr @_ZNK4Node2inEj(ptr noundef nonnull align 8 dereferenceable(52) %0, i32 noundef %1) #1 comdat align 2 {
  %3 = alloca ptr, align 8
  %4 = alloca i32, align 4
  store ptr %0, ptr %3, align 8
  store i32 %1, ptr %4, align 4
  %5 = load ptr, ptr %3, align 8
  %6 = getelementptr inbounds %class.Node, ptr %5, i32 0, i32 1
  %7 = load ptr, ptr %6, align 8
  %8 = load i32, ptr %4, align 4
  %9 = zext i32 %8 to i64
  %10 = getelementptr inbounds ptr, ptr %7, i64 %9
  %11 = load ptr, ptr %10, align 8
  ret ptr %11
}

; Function Attrs: mustprogress nounwind uwtable
define hidden noundef ptr @_ZN15CountedLoopNode35skip_assertion_predicates_with_haltEv(ptr noundef nonnull align 8 dereferenceable(92) %0) #1 align 2 {
  %2 = alloca ptr, align 8
  %3 = alloca ptr, align 8
  %4 = alloca ptr, align 8
  %5 = alloca %class.AssertionPredicatesWithHalt, align 8
  store ptr %0, ptr %3, align 8
  %6 = load ptr, ptr %3, align 8
  %7 = call noundef ptr @_ZNK4Node2inEj(ptr noundef nonnull align 8 dereferenceable(52) %6, i32 noundef 1)
  store ptr %7, ptr %4, align 8
  %8 = call noundef zeroext i1 @_ZNK15CountedLoopNode12is_main_loopEv(ptr noundef nonnull align 8 dereferenceable(92) %6)
  br i1 %8, label %9, label %15

9:                                                ; preds = %1
  %10 = load ptr, ptr %6, align 8
  %11 = getelementptr inbounds ptr, ptr %10, i64 24
  %12 = load ptr, ptr %11, align 8
  %13 = call noundef ptr %12(ptr noundef nonnull align 8 dereferenceable(92) %6, i32 noundef 1)
  %14 = call noundef ptr @_ZNK4Node2inEj(ptr noundef nonnull align 8 dereferenceable(52) %13, i32 noundef 1)
  store ptr %14, ptr %4, align 8
  br label %15

15:                                               ; preds = %9, %1
  %16 = call noundef zeroext i1 @_ZNK15CountedLoopNode12is_main_loopEv(ptr noundef nonnull align 8 dereferenceable(92) %6)
  br i1 %16, label %19, label %17

17:                                               ; preds = %15
  %18 = call noundef zeroext i1 @_ZNK15CountedLoopNode12is_post_loopEv(ptr noundef nonnull align 8 dereferenceable(92) %6)
  br i1 %18, label %19, label %22

19:                                               ; preds = %17, %15
  %20 = load ptr, ptr %4, align 8
  call void @_ZN27AssertionPredicatesWithHaltC2EP4Node(ptr noundef nonnull align 8 dereferenceable(8) %5, ptr noundef %20)
  %21 = call noundef ptr @_ZNK27AssertionPredicatesWithHalt5entryEv(ptr noundef nonnull align 8 dereferenceable(8) %5)
  store ptr %21, ptr %2, align 8
  br label %24

22:                                               ; preds = %17
  %23 = load ptr, ptr %4, align 8
  store ptr %23, ptr %2, align 8
  br label %24

24:                                               ; preds = %22, %19
  %25 = load ptr, ptr %2, align 8
  ret ptr %25
}