; Function Attrs: mustprogress nounwind uwtable
define hidden noundef ptr @_ZN15CountedLoopNode35skip_assertion_predicates_with_haltEv(ptr noundef nonnull align 8 dereferenceable(92) %0) local_unnamed_addr #0 align 2 {
  %2 = getelementptr inbounds i8, ptr %0, i64 60
  %3 = load i32, ptr %2, align 4
  %4 = and i32 %3, 3
  %5 = icmp eq i32 %4, 2
  br i1 %5, label %6, label %11

6:                                                ; preds = %1
  %7 = load ptr, ptr %0, align 8
  %8 = getelementptr inbounds i8, ptr %7, i64 192
  %9 = load ptr, ptr %8, align 8
  %10 = tail call noundef ptr %9(ptr noundef nonnull align 8 dereferenceable(92) %0, i32 noundef 1) #15
  %.pre = load i32, ptr %2, align 4
  br label %11

11:                                               ; preds = %6, %1
  %12 = phi i32 [ %.pre, %6 ], [ %3, %1 ]
  %.pn5 = phi ptr [ %10, %6 ], [ %0, %1 ]
  %.pn.in = getelementptr inbounds i8, ptr %.pn5, i64 8
  %.pn = load ptr, ptr %.pn.in, align 8
  %.0.in = getelementptr inbounds i8, ptr %.pn, i64 8
  %.0 = load ptr, ptr %.0.in, align 8
  %13 = and i32 %12, 2
  %switch.not = icmp eq i32 %13, 0
  br i1 %switch.not, label %16, label %14

14:                                               ; preds = %11
  %15 = tail call noundef ptr @_ZN27AssertionPredicatesWithHalt10find_entryEP4Node(ptr noundef %.0) #15
  br label %16

16:                                               ; preds = %11, %14
  %.04 = phi ptr [ %15, %14 ], [ %.0, %11 ]
  ret ptr %.04
}